target datalayout = "e-m:e-p270:32:32-p271:32:32-p272:64:64-i64:64-i128:128-f80:128-n8:16:32:64-S128"
target triple = "x86_64-pc-linux-gnu"

%struct.jpeg_decompress_struct = type { ptr, ptr, ptr, ptr, i32, i32, ptr, i32, i32, i32, i32, i32, i32, i32, double, i32, i32, i32, i32, i32, i32, i32, i32, i32, i32, i32, i32, i32, i32, i32, i32, i32, i32, ptr, i32, i32, i32, i32, i32, ptr, [4 x ptr], [4 x ptr], [4 x ptr], i32, ptr, i32, i32, [16 x i8], [16 x i8], [16 x i8], i32, i32, i8, i8, i8, i16, i16, i32, i8, i32, ptr, i32, i32, i32, i32, ptr, i32, [4 x ptr], i32, i32, i32, [10 x i32], i32, i32, i32, i32, i32, ptr, ptr, ptr, ptr, ptr, ptr, ptr, ptr, ptr, ptr, ptr }
%struct.jpeg_error_mgr = type { ptr, ptr, ptr, ptr, ptr, i32, %union.anon, i32, i64, ptr, i32, ptr, i32, i32 }
%union.anon = type { [8 x i32], [48 x i8] }
%struct.d_derived_tbl = type { [18 x i64], [18 x i64], ptr, [256 x i32] }
%struct.JHUFF_TBL = type { [17 x i8], [256 x i8], i32 }
%struct.bitread_working_state = type { ptr, i64, i64, i32, ptr }

; Function Attrs: nounwind uwtable
define i32 @jpeg_huff_decode(ptr noundef %0, i64 noundef %1, i32 noundef %2, ptr noundef %3, i32 noundef %4) #0 {
  %6 = alloca i32, align 4
  %7 = alloca ptr, align 8
  %8 = alloca i64, align 8
  %9 = alloca i32, align 4
  %10 = alloca ptr, align 8
  %11 = alloca i32, align 4
  %12 = alloca i32, align 4
  %13 = alloca i64, align 8
  store ptr %0, ptr %7, align 8
  store i64 %1, ptr %8, align 8
  store i32 %2, ptr %9, align 4
  store ptr %3, ptr %10, align 8
  store i32 %4, ptr %11, align 4
  %14 = load i32, ptr %11, align 4
  store i32 %14, ptr %12, align 4
  %15 = load i32, ptr %9, align 4
  %16 = load i32, ptr %12, align 4
  %17 = icmp slt i32 %15, %16
  br i1 %17, label %18, label %33

18:                                               ; preds = %5
  %19 = load ptr, ptr %7, align 8
  %20 = load i64, ptr %8, align 8
  %21 = load i32, ptr %9, align 4
  %22 = load i32, ptr %12, align 4
  %23 = call i32 @jpeg_fill_bit_buffer(ptr noundef %19, i64 noundef %20, i32 noundef %21, i32 noundef %22)
  %24 = icmp ne i32 %23, 0
  br i1 %24, label %26, label %25

25:                                               ; preds = %18
  store i32 -1, ptr %6, align 4
  br label %131

26:                                               ; preds = %18
  %27 = load ptr, ptr %7, align 8
  %28 = getelementptr inbounds %struct.bitread_working_state, ptr %27, i32 0, i32 2
  %29 = load i64, ptr %28, align 8
  store i64 %29, ptr %8, align 8
  %30 = load ptr, ptr %7, align 8
  %31 = getelementptr inbounds %struct.bitread_working_state, ptr %30, i32 0, i32 3
  %32 = load i32, ptr %31, align 8
  store i32 %32, ptr %9, align 4
  br label %33

33:                                               ; preds = %26, %5
  %34 = load i64, ptr %8, align 8
  %35 = load i32, ptr %12, align 4
  %36 = load i32, ptr %9, align 4
  %37 = sub nsw i32 %36, %35
  store i32 %37, ptr %9, align 4
  %38 = zext i32 %37 to i64
  %39 = lshr i64 %34, %38
  %40 = trunc i64 %39 to i32
  %41 = load i32, ptr %12, align 4
  %42 = shl i32 1, %41
  %43 = sub nsw i32 %42, 1
  %44 = and i32 %40, %43
  %45 = sext i32 %44 to i64
  store i64 %45, ptr %13, align 8
  br label %46

46:                                               ; preds = %74, %33
  %47 = load i64, ptr %13, align 8
  %48 = load ptr, ptr %10, align 8
  %49 = getelementptr inbounds %struct.d_derived_tbl, ptr %48, i32 0, i32 0
  %50 = load i32, ptr %12, align 4
  %51 = sext i32 %50 to i64
  %52 = getelementptr inbounds [18 x i64], ptr %49, i64 0, i64 %51
  %53 = load i64, ptr %52, align 8
  %54 = icmp sgt i64 %47, %53
  br i1 %54, label %55, label %87

55:                                               ; preds = %46
  %56 = load i64, ptr %13, align 8
  %57 = shl i64 %56, 1
  store i64 %57, ptr %13, align 8
  %58 = load i32, ptr %9, align 4
  %59 = icmp slt i32 %58, 1
  br i1 %59, label %60, label %74

60:                                               ; preds = %55
  %61 = load ptr, ptr %7, align 8
  %62 = load i64, ptr %8, align 8
  %63 = load i32, ptr %9, align 4
  %64 = call i32 @jpeg_fill_bit_buffer(ptr noundef %61, i64 noundef %62, i32 noundef %63, i32 noundef 1)
  %65 = icmp ne i32 %64, 0
  br i1 %65, label %67, label %66

66:                                               ; preds = %60
  store i32 -1, ptr %6, align 4
  br label %131

67:                                               ; preds = %60
  %68 = load ptr, ptr %7, align 8
  %69 = getelementptr inbounds %struct.bitread_working_state, ptr %68, i32 0, i32 2
  %70 = load i64, ptr %69, align 8
  store i64 %70, ptr %8, align 8
  %71 = load ptr, ptr %7, align 8
  %72 = getelementptr inbounds %struct.bitread_working_state, ptr %71, i32 0, i32 3
  %73 = load i32, ptr %72, align 8
  store i32 %73, ptr %9, align 4
  br label %74

74:                                               ; preds = %67, %55
  %75 = load i64, ptr %8, align 8
  %76 = load i32, ptr %9, align 4
  %77 = sub nsw i32 %76, 1
  store i32 %77, ptr %9, align 4
  %78 = zext i32 %77 to i64
  %79 = lshr i64 %75, %78
  %80 = trunc i64 %79 to i32
  %81 = and i32 %80, 1
  %82 = sext i32 %81 to i64
  %83 = load i64, ptr %13, align 8
  %84 = or i64 %83, %82
  store i64 %84, ptr %13, align 8
  %85 = load i32, ptr %12, align 4
  %86 = add nsw i32 %85, 1
  store i32 %86, ptr %12, align 4
  br label %46, !llvm.loop !17

87:                                               ; preds = %46
  %88 = load i64, ptr %8, align 8
  %89 = load ptr, ptr %7, align 8
  %90 = getelementptr inbounds %struct.bitread_working_state, ptr %89, i32 0, i32 2
  store i64 %88, ptr %90, align 8
  %91 = load i32, ptr %9, align 4
  %92 = load ptr, ptr %7, align 8
  %93 = getelementptr inbounds %struct.bitread_working_state, ptr %92, i32 0, i32 3
  store i32 %91, ptr %93, align 8
  %94 = load i32, ptr %12, align 4
  %95 = icmp sgt i32 %94, 16
  br i1 %95, label %96, label %113

96:                                               ; preds = %87
  %97 = load ptr, ptr %7, align 8
  %98 = getelementptr inbounds %struct.bitread_working_state, ptr %97, i32 0, i32 4
  %99 = load ptr, ptr %98, align 8
  %100 = getelementptr inbounds %struct.jpeg_decompress_struct, ptr %99, i32 0, i32 0
  %101 = load ptr, ptr %100, align 8
  %102 = getelementptr inbounds %struct.jpeg_error_mgr, ptr %101, i32 0, i32 5
  store i32 118, ptr %102, align 8
  %103 = load ptr, ptr %7, align 8
  %104 = getelementptr inbounds %struct.bitread_working_state, ptr %103, i32 0, i32 4
  %105 = load ptr, ptr %104, align 8
  %106 = getelementptr inbounds %struct.jpeg_decompress_struct, ptr %105, i32 0, i32 0
  %107 = load ptr, ptr %106, align 8
  %108 = getelementptr inbounds %struct.jpeg_error_mgr, ptr %107, i32 0, i32 1
  %109 = load ptr, ptr %108, align 8
  %110 = load ptr, ptr %7, align 8
  %111 = getelementptr inbounds %struct.bitread_working_state, ptr %110, i32 0, i32 4
  %112 = load ptr, ptr %111, align 8
  call void %109(ptr noundef %112, i32 noundef -1)
  store i32 0, ptr %6, align 4
  br label %131

113:                                              ; preds = %87
  %114 = load ptr, ptr %10, align 8
  %115 = getelementptr inbounds %struct.d_derived_tbl, ptr %114, i32 0, i32 2
  %116 = load ptr, ptr %115, align 8
  %117 = getelementptr inbounds %struct.JHUFF_TBL, ptr %116, i32 0, i32 1
  %118 = load i64, ptr %13, align 8
  %119 = load ptr, ptr %10, align 8
  %120 = getelementptr inbounds %struct.d_derived_tbl, ptr %119, i32 0, i32 1
  %121 = load i32, ptr %12, align 4
  %122 = sext i32 %121 to i64
  %123 = getelementptr inbounds [18 x i64], ptr %120, i64 0, i64 %122
  %124 = load i64, ptr %123, align 8
  %125 = add nsw i64 %118, %124
  %126 = trunc i64 %125 to i32
  %127 = sext i32 %126 to i64
  %128 = getelementptr inbounds [256 x i8], ptr %117, i64 0, i64 %127
  %129 = load i8, ptr %128, align 1
  %130 = zext i8 %129 to i32
  store i32 %130, ptr %6, align 4
  br label %131

131:                                              ; preds = %113, %96, %66, %25
  %132 = load i32, ptr %6, align 4
  ret i32 %132
}