; Function Attrs: nounwind uwtable
define range(i32 -1, 256) i32 @jpeg_huff_decode(ptr nocapture noundef %0, i64 noundef %1, i32 noundef %2, ptr nocapture noundef readonly %3, i32 noundef %4) local_unnamed_addr #0 {
  %6 = icmp slt i32 %2, %4
  br i1 %6, label %7, label %14

7:                                                ; preds = %5
  %8 = tail call i32 @jpeg_fill_bit_buffer(ptr noundef %0, i64 noundef %1, i32 noundef %2, i32 noundef %4)
  %.not = icmp eq i32 %8, 0
  br i1 %.not, label %.loopexit, label %9

9:                                                ; preds = %7
  %10 = getelementptr inbounds i8, ptr %0, i64 16
  %11 = load i64, ptr %10, align 8
  %12 = getelementptr inbounds i8, ptr %0, i64 24
  %13 = load i32, ptr %12, align 8
  br label %14

14:                                               ; preds = %9, %5
  %.042 = phi i32 [ %13, %9 ], [ %2, %5 ]
  %.041 = phi i64 [ %11, %9 ], [ %1, %5 ]
  %15 = sub nsw i32 %.042, %4
  %16 = zext nneg i32 %15 to i64
  %17 = lshr i64 %.041, %16
  %18 = trunc i64 %17 to i32
  %notmask = shl nsw i32 -1, %4
  %19 = xor i32 %notmask, -1
  %20 = and i32 %18, %19
  %21 = zext nneg i32 %20 to i64
  %22 = sext i32 %4 to i64
  %23 = getelementptr inbounds [18 x i64], ptr %3, i64 0, i64 %22
  %24 = load i64, ptr %23, align 8
  %25 = icmp slt i64 %24, %21
  br i1 %25, label %.lr.ph, label %._crit_edge

.lr.ph:                                           ; preds = %14
  %26 = getelementptr inbounds i8, ptr %0, i64 16
  %27 = getelementptr inbounds i8, ptr %0, i64 24
  br label %28

28:                                               ; preds = %.lr.ph, %36
  %indvars.iv = phi i64 [ %22, %.lr.ph ], [ %indvars.iv.next, %36 ]
  %.057 = phi i64 [ %21, %.lr.ph ], [ %41, %36 ]
  %.155 = phi i64 [ %.041, %.lr.ph ], [ %.2, %36 ]
  %.14354 = phi i32 [ %15, %.lr.ph ], [ %37, %36 ]
  %29 = shl i64 %.057, 1
  %30 = icmp slt i32 %.14354, 1
  br i1 %30, label %31, label %36

31:                                               ; preds = %28
  %32 = tail call i32 @jpeg_fill_bit_buffer(ptr noundef %0, i64 noundef %.155, i32 noundef %.14354, i32 noundef 1)
  %.not48 = icmp eq i32 %32, 0
  br i1 %.not48, label %.loopexit, label %33

33:                                               ; preds = %31
  %34 = load i64, ptr %26, align 8
  %35 = load i32, ptr %27, align 8
  br label %36

36:                                               ; preds = %33, %28
  %.244 = phi i32 [ %35, %33 ], [ %.14354, %28 ]
  %.2 = phi i64 [ %34, %33 ], [ %.155, %28 ]
  %37 = add nsw i32 %.244, -1
  %38 = zext nneg i32 %37 to i64
  %39 = lshr i64 %.2, %38
  %40 = and i64 %39, 1
  %41 = or disjoint i64 %40, %29
  %indvars.iv.next = add nsw i64 %indvars.iv, 1
  %42 = getelementptr inbounds [18 x i64], ptr %3, i64 0, i64 %indvars.iv.next
  %43 = load i64, ptr %42, align 8
  %44 = icmp sgt i64 %41, %43
  br i1 %44, label %28, label %._crit_edge.loopexit, !llvm.loop !15

._crit_edge.loopexit:                             ; preds = %36
  %45 = trunc nsw i64 %indvars.iv.next to i32
  br label %._crit_edge

._crit_edge:                                      ; preds = %._crit_edge.loopexit, %14
  %.143.lcssa = phi i32 [ %15, %14 ], [ %37, %._crit_edge.loopexit ]
  %.1.lcssa = phi i64 [ %.041, %14 ], [ %.2, %._crit_edge.loopexit ]
  %.039.lcssa = phi i32 [ %4, %14 ], [ %45, %._crit_edge.loopexit ]
  %.0.lcssa = phi i64 [ %21, %14 ], [ %41, %._crit_edge.loopexit ]
  %.lcssa = phi i64 [ %22, %14 ], [ %indvars.iv.next, %._crit_edge.loopexit ]
  %46 = getelementptr inbounds i8, ptr %0, i64 16
  store i64 %.1.lcssa, ptr %46, align 8
  %47 = getelementptr inbounds i8, ptr %0, i64 24
  store i32 %.143.lcssa, ptr %47, align 8
  %48 = icmp sgt i32 %.039.lcssa, 16
  br i1 %48, label %49, label %58

49:                                               ; preds = %._crit_edge
  %50 = getelementptr inbounds i8, ptr %0, i64 32
  %51 = load ptr, ptr %50, align 8
  %52 = load ptr, ptr %51, align 8
  %53 = getelementptr inbounds i8, ptr %52, i64 40
  store i32 118, ptr %53, align 8
  %54 = load ptr, ptr %50, align 8
  %55 = load ptr, ptr %54, align 8
  %56 = getelementptr inbounds i8, ptr %55, i64 8
  %57 = load ptr, ptr %56, align 8
  tail call void %57(ptr noundef nonnull %54, i32 noundef -1) #5
  br label %.loopexit

58:                                               ; preds = %._crit_edge
  %59 = getelementptr inbounds i8, ptr %3, i64 288
  %60 = load ptr, ptr %59, align 8
  %61 = getelementptr inbounds i8, ptr %60, i64 17
  %62 = getelementptr inbounds i8, ptr %3, i64 144
  %63 = getelementptr inbounds [18 x i64], ptr %62, i64 0, i64 %.lcssa
  %64 = load i64, ptr %63, align 8
  %65 = add nsw i64 %64, %.0.lcssa
  %sext = shl i64 %65, 32
  %66 = ashr exact i64 %sext, 32
  %67 = getelementptr inbounds [256 x i8], ptr %61, i64 0, i64 %66
  %68 = load i8, ptr %67, align 1
  %69 = zext i8 %68 to i32
  br label %.loopexit

.loopexit:                                        ; preds = %31, %7, %58, %49
  %.040 = phi i32 [ 0, %49 ], [ %69, %58 ], [ -1, %7 ], [ -1, %31 ]
  ret i32 %.040
}